; Function Attrs: nounwind uwtable
define void @CORD_ec_flush_buf(ptr noundef %0) local_unnamed_addr #0 {
  %2 = getelementptr inbounds nuw i8, ptr %0, i64 8
  %3 = load ptr, ptr %2, align 8, !tbaa !30
  %4 = getelementptr inbounds nuw i8, ptr %0, i64 16
  %5 = ptrtoint ptr %3 to i64
  %6 = ptrtoint ptr %4 to i64
  %7 = sub i64 %5, %6
  %8 = icmp eq ptr %3, %4
  br i1 %8, label %20, label %9

9:                                                ; preds = %1
  %10 = add i64 %7, 1
  %11 = tail call noalias ptr @GC_malloc_atomic(i64 noundef %10) #17
  %12 = icmp eq ptr %11, null
  br i1 %12, label %13, label %16

13:                                               ; preds = %9
  tail call void @CORD__call_oom_fn() #16
  %14 = load ptr, ptr @stderr, align 8, !tbaa !3
  %15 = tail call i32 (ptr, ptr, ...) @fprintf(ptr noundef %14, ptr noundef nonnull @.str, ptr noundef nonnull @.str.1) #18
  tail call void @abort() #19
  unreachable

16:                                               ; preds = %9
  tail call void @llvm.memcpy.p0.p0.i64(ptr nonnull align 1 %11, ptr nonnull align 8 %4, i64 %7, i1 false)
  %17 = getelementptr inbounds nuw i8, ptr %11, i64 %7
  store i8 0, ptr %17, align 1, !tbaa !8
  %18 = load ptr, ptr %0, align 8, !tbaa !32
  %19 = tail call ptr @CORD_cat_char_star(ptr noundef %18, ptr noundef nonnull %11, i64 noundef %7) #16
  store ptr %19, ptr %0, align 8, !tbaa !32
  store ptr %4, ptr %2, align 8, !tbaa !30
  br label %20

20:                                               ; preds = %1, %16
  ret void
}